---
triple:          'arm64-apple-darwin'
binary-path:     '/Users/shivamverma/Desktop/code/cses-solution/Sorting and Searching /Restaurant_Customers'
relocations:
  - { offset: 0x1B3A3, size: 0x8, addend: 0x0, symName: __ZStL8__ioinit, symObjAddr: 0x7C0FD, symBinAddr: 0x1000103A8, symSize: 0x0 }
  - { offset: 0x1B9AF, size: 0x8, addend: 0x0, symName: __GLOBAL__sub_I_Restaurant_Customers.cpp, symObjAddr: 0x2384, symBinAddr: 0x100009FC0, symSize: 0x14 }
  - { offset: 0x1B9C7, size: 0x8, addend: 0x0, symName: __Z41__static_initialization_and_destruction_0v, symObjAddr: 0x2348, symBinAddr: 0x100009F84, symSize: 0x3C }
  - { offset: 0x1B9DF, size: 0x8, addend: 0x0, symName: __ZNSt20__copy_move_backwardILb1ELb0ESt26random_access_iterator_tagE13__copy_move_bIPSt4pairIiiES5_EET0_T_S7_S6_, symObjAddr: 0x222C, symBinAddr: 0x100009F08, symSize: 0x7C }
  - { offset: 0x1BA4E, size: 0x8, addend: 0x0, symName: __ZSt4swapIiENSt9enable_ifIXsrSt6__and_IJSt6__not_ISt15__is_tuple_likeIT_EESt21is_move_constructibleIS4_ESt18is_move_assignableIS4_EEE5valueEvE4typeERS4_SE_, symObjAddr: 0x21D8, symBinAddr: 0x100009EB4, symSize: 0x54 }
  - { offset: 0x1BAA6, size: 0x8, addend: 0x0, symName: __ZSt4moveIRiEONSt16remove_referenceIT_E4typeEOS2_, symObjAddr: 0x21C4, symBinAddr: 0x100009EA0, symSize: 0x14 }
  - { offset: 0x1BADC, size: 0x8, addend: 0x0, symName: __ZN9__gnu_cxx5__ops14_Iter_comp_valIPFbSt4pairIiiES3_EEclINS_17__normal_iteratorIPS3_St6vectorIS3_SaIS3_EEEES3_EEbT_RT0_, symObjAddr: 0x217C, symBinAddr: 0x100009E58, symSize: 0x48 }
  - { offset: 0x1BB34, size: 0x8, addend: 0x0, symName: __ZSt12__niter_baseIPSt4pairIiiEET_S3_, symObjAddr: 0x2168, symBinAddr: 0x100009E44, symSize: 0x14 }
  - { offset: 0x1BB67, size: 0x8, addend: 0x0, symName: __ZSt23__copy_move_backward_a2ILb1EPSt4pairIiiES2_ET1_T0_S4_S3_, symObjAddr: 0x213C, symBinAddr: 0x100009E18, symSize: 0x2C }
  - { offset: 0x1BBD3, size: 0x8, addend: 0x0, symName: __ZNSt4pairIiiE4swapERS0_, symObjAddr: 0x20F8, symBinAddr: 0x100009DD4, symSize: 0x44 }
  - { offset: 0x1BC10, size: 0x8, addend: 0x0, symName: __ZSt11__push_heapIN9__gnu_cxx17__normal_iteratorIPSt4pairIiiESt6vectorIS3_SaIS3_EEEElS3_NS0_5__ops14_Iter_comp_valIPFbS3_S3_EEEEvT_T0_SF_T1_RT2_, symObjAddr: 0x1FCC, symBinAddr: 0x100009CA8, symSize: 0x12C }
  - { offset: 0x1BCD9, size: 0x8, addend: 0x0, symName: __ZN9__gnu_cxx5__ops14_Iter_comp_valIPFbSt4pairIiiES3_EEC1EONS0_15_Iter_comp_iterIS5_EE, symObjAddr: 0x1F9C, symBinAddr: 0x100009C78, symSize: 0x30 }
  - { offset: 0x1BD04, size: 0x8, addend: 0x0, symName: __ZSt12__niter_wrapIN9__gnu_cxx17__normal_iteratorIPSt4pairIiiESt6vectorIS3_SaIS3_EEEES4_ET_S9_T0_, symObjAddr: 0x1F54, symBinAddr: 0x100009C30, symSize: 0x48 }
  - { offset: 0x1BD51, size: 0x8, addend: 0x0, symName: __ZSt23__copy_move_backward_a1ILb1EPSt4pairIiiES2_ET1_T0_S4_S3_, symObjAddr: 0x1F28, symBinAddr: 0x100009C04, symSize: 0x2C }
  - { offset: 0x1BDB9, size: 0x8, addend: 0x0, symName: __ZSt12__niter_baseIPSt4pairIiiESt6vectorIS1_SaIS1_EEET_N9__gnu_cxx17__normal_iteratorIS6_T0_EE, symObjAddr: 0x1F08, symBinAddr: 0x100009BE4, symSize: 0x20 }
  - { offset: 0x1BDF5, size: 0x8, addend: 0x0, symName: __ZSt4swapIiiENSt9enable_ifIXsrSt6__and_IJSt14__is_swappableIT_ES2_IT0_EEE5valueEvE4typeERSt4pairIS3_S5_ESC_, symObjAddr: 0x1EE0, symBinAddr: 0x100009BBC, symSize: 0x28 }
  - { offset: 0x1BE42, size: 0x8, addend: 0x0, symName: __ZSt13__adjust_heapIN9__gnu_cxx17__normal_iteratorIPSt4pairIiiESt6vectorIS3_SaIS3_EEEElS3_NS0_5__ops15_Iter_comp_iterIPFbS3_S3_EEEEvT_T0_SF_T1_T2_, symObjAddr: 0x1D08, symBinAddr: 0x1000099E4, symSize: 0x1D8 }
  - { offset: 0x1BF34, size: 0x8, addend: 0x0, symName: __ZNSt4pairIiiEC1IiiLb1EEEv, symObjAddr: 0x1CE4, symBinAddr: 0x1000099C0, symSize: 0x24 }
  - { offset: 0x1BF6C, size: 0x8, addend: 0x0, symName: __ZN9__gnu_cxx5__ops14_Val_comp_iterIPFbSt4pairIiiES3_EEclIS3_NS_17__normal_iteratorIPS3_St6vectorIS3_SaIS3_EEEEEEbRT_T0_, symObjAddr: 0x1C9C, symBinAddr: 0x100009978, symSize: 0x48 }
  - { offset: 0x1BFEF, size: 0x8, addend: 0x0, symName: __ZN9__gnu_cxx5__ops14_Val_comp_iterIPFbSt4pairIiiES3_EEC1EONS0_15_Iter_comp_iterIS5_EE, symObjAddr: 0x1C6C, symBinAddr: 0x100009948, symSize: 0x30 }
  - { offset: 0x1C026, size: 0x8, addend: 0x0, symName: __ZSt4moveIRN9__gnu_cxx5__ops15_Iter_comp_iterIPFbSt4pairIiiES4_EEEEONSt16remove_referenceIT_E4typeEOSA_, symObjAddr: 0x1C58, symBinAddr: 0x100009934, symSize: 0x14 }
  - { offset: 0x1C058, size: 0x8, addend: 0x0, symName: __ZSt22__copy_move_backward_aILb1EN9__gnu_cxx17__normal_iteratorIPSt4pairIiiESt6vectorIS3_SaIS3_EEEES8_ET1_T0_SA_S9_, symObjAddr: 0x1BF8, symBinAddr: 0x1000098D4, symSize: 0x60 }
  - { offset: 0x1C0C0, size: 0x8, addend: 0x0, symName: __ZSt12__miter_baseIN9__gnu_cxx17__normal_iteratorIPSt4pairIiiESt6vectorIS3_SaIS3_EEEEET_S9_, symObjAddr: 0x1BE4, symBinAddr: 0x1000098C0, symSize: 0x14 }
  - { offset: 0x1C0F3, size: 0x8, addend: 0x0, symName: __ZSt9iter_swapIN9__gnu_cxx17__normal_iteratorIPSt4pairIiiESt6vectorIS3_SaIS3_EEEES8_EvT_T0_, symObjAddr: 0x1BA0, symBinAddr: 0x10000987C, symSize: 0x44 }
  - { offset: 0x1C13E, size: 0x8, addend: 0x0, symName: __ZSt10__pop_heapIN9__gnu_cxx17__normal_iteratorIPSt4pairIiiESt6vectorIS3_SaIS3_EEEENS0_5__ops15_Iter_comp_iterIPFbS3_S3_EEEEvT_SE_SE_RT0_, symObjAddr: 0x1B08, symBinAddr: 0x1000097E4, symSize: 0x98 }
  - { offset: 0x1C1DA, size: 0x8, addend: 0x0, symName: __ZN9__gnu_cxxltIPSt4pairIiiESt6vectorIS2_SaIS2_EEEEbRKNS_17__normal_iteratorIT_T0_EESC_, symObjAddr: 0x1AC4, symBinAddr: 0x1000097A0, symSize: 0x44 }
  - { offset: 0x1C227, size: 0x8, addend: 0x0, symName: __ZSt11__make_heapIN9__gnu_cxx17__normal_iteratorIPSt4pairIiiESt6vectorIS3_SaIS3_EEEENS0_5__ops15_Iter_comp_iterIPFbS3_S3_EEEEvT_SE_RT0_, symObjAddr: 0x19E8, symBinAddr: 0x1000096C4, symSize: 0xDC }
  - { offset: 0x1C2DE, size: 0x8, addend: 0x0, symName: __ZSt10_ConstructISt4pairIiiEJEEvPT_DpOT0_, symObjAddr: 0x19BC, symBinAddr: 0x100009698, symSize: 0x2C }
  - { offset: 0x1C31A, size: 0x8, addend: 0x0, symName: __ZSt11__addressofISt4pairIiiEEPT_RS2_, symObjAddr: 0x19A8, symBinAddr: 0x100009684, symSize: 0x14 }
  - { offset: 0x1C350, size: 0x8, addend: 0x0, symName: __ZNSt15__new_allocatorISt4pairIiiEE8allocateEmPKv, symObjAddr: 0x192C, symBinAddr: 0x100009608, symSize: 0x7C }
  - { offset: 0x1C3DC, size: 0x8, addend: 0x0, symName: __ZN9__gnu_cxx17__normal_iteratorIPSt4pairIiiESt6vectorIS2_SaIS2_EEEpLEl, symObjAddr: 0x18F8, symBinAddr: 0x1000095D4, symSize: 0x34 }
  - { offset: 0x1C417, size: 0x8, addend: 0x0, symName: __ZN9__gnu_cxx17__normal_iteratorIPSt4pairIiiESt6vectorIS2_SaIS2_EEEmmEv, symObjAddr: 0x18D0, symBinAddr: 0x1000095AC, symSize: 0x28 }
  - { offset: 0x1C43D, size: 0x8, addend: 0x0, symName: __ZSt25__unguarded_linear_insertIN9__gnu_cxx17__normal_iteratorIPSt4pairIiiESt6vectorIS3_SaIS3_EEEENS0_5__ops14_Val_comp_iterIPFbS3_S3_EEEEvT_T0_, symObjAddr: 0x181C, symBinAddr: 0x1000094F8, symSize: 0xB4 }
  - { offset: 0x1C4AC, size: 0x8, addend: 0x0, symName: __ZN9__gnu_cxx5__ops15__val_comp_iterIPFbSt4pairIiiES3_EEENS0_14_Val_comp_iterIT_EENS0_15_Iter_comp_iterIS7_EE, symObjAddr: 0x17F0, symBinAddr: 0x1000094CC, symSize: 0x2C }
  - { offset: 0x1C4E2, size: 0x8, addend: 0x0, symName: __ZNSt4pairIiiEaSEOS0_, symObjAddr: 0x17A8, symBinAddr: 0x100009484, symSize: 0x48 }
  - { offset: 0x1C519, size: 0x8, addend: 0x0, symName: __ZSt13move_backwardIN9__gnu_cxx17__normal_iteratorIPSt4pairIiiESt6vectorIS3_SaIS3_EEEES8_ET0_T_SA_S9_, symObjAddr: 0x1760, symBinAddr: 0x10000943C, symSize: 0x48 }
  - { offset: 0x1C57D, size: 0x8, addend: 0x0, symName: __ZSt4moveIRSt4pairIiiEEONSt16remove_referenceIT_E4typeEOS4_, symObjAddr: 0x174C, symBinAddr: 0x100009428, symSize: 0x14 }
  - { offset: 0x1C5B3, size: 0x8, addend: 0x0, symName: __ZN9__gnu_cxx5__ops15_Iter_comp_iterIPFbSt4pairIiiES3_EEclINS_17__normal_iteratorIPS3_St6vectorIS3_SaIS3_EEEESD_EEbT_T0_, symObjAddr: 0x1700, symBinAddr: 0x1000093DC, symSize: 0x4C }
  - { offset: 0x1C60B, size: 0x8, addend: 0x0, symName: __ZSt21__unguarded_partitionIN9__gnu_cxx17__normal_iteratorIPSt4pairIiiESt6vectorIS3_SaIS3_EEEENS0_5__ops15_Iter_comp_iterIPFbS3_S3_EEEET_SE_SE_SE_T0_, symObjAddr: 0x1648, symBinAddr: 0x100009324, symSize: 0xB8 }
  - { offset: 0x1C67A, size: 0x8, addend: 0x0, symName: __ZSt22__move_median_to_firstIN9__gnu_cxx17__normal_iteratorIPSt4pairIiiESt6vectorIS3_SaIS3_EEEENS0_5__ops15_Iter_comp_iterIPFbS3_S3_EEEEvT_SE_SE_SE_T0_, symObjAddr: 0x1538, symBinAddr: 0x100009214, symSize: 0x110 }
  - { offset: 0x1C6F9, size: 0x8, addend: 0x0, symName: __ZNK9__gnu_cxx17__normal_iteratorIPSt4pairIiiESt6vectorIS2_SaIS2_EEEmiEl, symObjAddr: 0x14F4, symBinAddr: 0x1000091D0, symSize: 0x44 }
  - { offset: 0x1C730, size: 0x8, addend: 0x0, symName: __ZSt11__sort_heapIN9__gnu_cxx17__normal_iteratorIPSt4pairIiiESt6vectorIS3_SaIS3_EEEENS0_5__ops15_Iter_comp_iterIPFbS3_S3_EEEEvT_SE_RT0_, symObjAddr: 0x148C, symBinAddr: 0x100009168, symSize: 0x68 }
  - { offset: 0x1C78E, size: 0x8, addend: 0x0, symName: __ZSt13__heap_selectIN9__gnu_cxx17__normal_iteratorIPSt4pairIiiESt6vectorIS3_SaIS3_EEEENS0_5__ops15_Iter_comp_iterIPFbS3_S3_EEEEvT_SE_SE_T0_, symObjAddr: 0x13F0, symBinAddr: 0x1000090CC, symSize: 0x9C }
  - { offset: 0x1C821, size: 0x8, addend: 0x0, symName: __ZNSt27__uninitialized_default_n_1ILb0EE18__uninit_default_nIPSt4pairIiiEmEET_S5_T0_, symObjAddr: 0x1368, symBinAddr: 0x100009044, symSize: 0x88 }
  - { offset: 0x1C883, size: 0x8, addend: 0x0, symName: __ZNSt15__new_allocatorISt4pairIiiEE10deallocateEPS1_m, symObjAddr: 0x1338, symBinAddr: 0x100009014, symSize: 0x30 }
  - { offset: 0x1C907, size: 0x8, addend: 0x0, symName: __ZNK9__gnu_cxx17__normal_iteratorIPSt4pairIiiESt6vectorIS2_SaIS2_EEEdeEv, symObjAddr: 0x1320, symBinAddr: 0x100008FFC, symSize: 0x18 }
  - { offset: 0x1C92D, size: 0x8, addend: 0x0, symName: __ZSt9__advanceIN9__gnu_cxx17__normal_iteratorIPSt4pairIiiESt6vectorIS3_SaIS3_EEEElEvRT_T0_St26random_access_iterator_tag, symObjAddr: 0x12F4, symBinAddr: 0x100008FD0, symSize: 0x2C }
  - { offset: 0x1C9C7, size: 0x8, addend: 0x0, symName: __ZSt26__unguarded_insertion_sortIN9__gnu_cxx17__normal_iteratorIPSt4pairIiiESt6vectorIS3_SaIS3_EEEENS0_5__ops15_Iter_comp_iterIPFbS3_S3_EEEEvT_SE_T0_, symObjAddr: 0x1290, symBinAddr: 0x100008F6C, symSize: 0x64 }
  - { offset: 0x1CA49, size: 0x8, addend: 0x0, symName: __ZSt16__insertion_sortIN9__gnu_cxx17__normal_iteratorIPSt4pairIiiESt6vectorIS3_SaIS3_EEEENS0_5__ops15_Iter_comp_iterIPFbS3_S3_EEEEvT_SE_T0_, symObjAddr: 0x1198, symBinAddr: 0x100008E74, symSize: 0xF8 }
  - { offset: 0x1CAF3, size: 0x8, addend: 0x0, symName: __ZNK9__gnu_cxx17__normal_iteratorIPSt4pairIiiESt6vectorIS2_SaIS2_EEEplEl, symObjAddr: 0x1158, symBinAddr: 0x100008E34, symSize: 0x40 }
  - { offset: 0x1CB2A, size: 0x8, addend: 0x0, symName: __ZSt27__unguarded_partition_pivotIN9__gnu_cxx17__normal_iteratorIPSt4pairIiiESt6vectorIS3_SaIS3_EEEENS0_5__ops15_Iter_comp_iterIPFbS3_S3_EEEET_SE_SE_T0_, symObjAddr: 0x10BC, symBinAddr: 0x100008D98, symSize: 0x9C }
  - { offset: 0x1CB99, size: 0x8, addend: 0x0, symName: __ZSt14__partial_sortIN9__gnu_cxx17__normal_iteratorIPSt4pairIiiESt6vectorIS3_SaIS3_EEEENS0_5__ops15_Iter_comp_iterIPFbS3_S3_EEEEvT_SE_SE_T0_, symObjAddr: 0x1070, symBinAddr: 0x100008D4C, symSize: 0x4C }
  - { offset: 0x1CC08, size: 0x8, addend: 0x0, symName: __ZNSt12_Destroy_auxILb1EE9__destroyIPSt4pairIiiEEEvT_S5_, symObjAddr: 0x1058, symBinAddr: 0x100008D34, symSize: 0x18 }
  - { offset: 0x1CC3C, size: 0x8, addend: 0x0, symName: __ZSt25__uninitialized_default_nIPSt4pairIiiEmET_S3_T0_, symObjAddr: 0x102C, symBinAddr: 0x100008D08, symSize: 0x2C }
  - { offset: 0x1CCD0, size: 0x8, addend: 0x0, symName: __ZNSt12_Vector_baseISt4pairIiiESaIS1_EE11_M_allocateEm, symObjAddr: 0xFDC, symBinAddr: 0x100008CB8, symSize: 0x50 }
  - { offset: 0x1CD52, size: 0x8, addend: 0x0, symName: __ZNSt12_Vector_baseISt4pairIiiESaIS1_EE17_Vector_impl_dataC2Ev, symObjAddr: 0xFB0, symBinAddr: 0x100008C8C, symSize: 0x2C }
  - { offset: 0x1CDA5, size: 0x8, addend: 0x0, symName: __ZSt13__countl_zeroImEiT_, symObjAddr: 0xF5C, symBinAddr: 0x100008C38, symSize: 0x54 }
  - { offset: 0x1CE3E, size: 0x8, addend: 0x0, symName: __ZN9__gnu_cxx17__normal_iteratorIPSt4pairIiiESt6vectorIS2_SaIS2_EEEppEv, symObjAddr: 0xF34, symBinAddr: 0x100008C10, symSize: 0x28 }
  - { offset: 0x1CE68, size: 0x8, addend: 0x0, symName: __ZN9__gnu_cxx5__ops14_Val_comp_iterIPFbSt4pairIiiES3_EEclIKS3_NS_17__normal_iteratorIPS3_St6vectorIS3_SaIS3_EEEEEEbRT_T0_, symObjAddr: 0xEEC, symBinAddr: 0x100008BC8, symSize: 0x48 }
  - { offset: 0x1CF57, size: 0x8, addend: 0x0, symName: __ZN9__gnu_cxx5__ops14_Val_comp_iterIPFbSt4pairIiiES3_EEC1ES5_, symObjAddr: 0xEBC, symBinAddr: 0x100008B98, symSize: 0x30 }
  - { offset: 0x1CF82, size: 0x8, addend: 0x0, symName: __ZSt22__final_insertion_sortIN9__gnu_cxx17__normal_iteratorIPSt4pairIiiESt6vectorIS3_SaIS3_EEEENS0_5__ops15_Iter_comp_iterIPFbS3_S3_EEEEvT_SE_T0_, symObjAddr: 0xE30, symBinAddr: 0x100008B0C, symSize: 0x8C }
  - { offset: 0x1CFE0, size: 0x8, addend: 0x0, symName: __ZSt16__introsort_loopIN9__gnu_cxx17__normal_iteratorIPSt4pairIiiESt6vectorIS3_SaIS3_EEEElNS0_5__ops15_Iter_comp_iterIPFbS3_S3_EEEEvT_SE_T0_T1_, symObjAddr: 0xD88, symBinAddr: 0x100008A64, symSize: 0xA8 }
  - { offset: 0x1D07C, size: 0x8, addend: 0x0, symName: __ZSt4__lgIlET_S0_, symObjAddr: 0xD64, symBinAddr: 0x100008A40, symSize: 0x24 }
  - { offset: 0x1D0AF, size: 0x8, addend: 0x0, symName: __ZN9__gnu_cxxneIPSt4pairIiiESt6vectorIS2_SaIS2_EEEEbRKNS_17__normal_iteratorIT_T0_EESC_, symObjAddr: 0xD20, symBinAddr: 0x1000089FC, symSize: 0x44 }
  - { offset: 0x1D127, size: 0x8, addend: 0x0, symName: __ZN9__gnu_cxx5__ops15_Iter_comp_iterIPFbSt4pairIiiES3_EEC1ES5_, symObjAddr: 0xCF0, symBinAddr: 0x1000089CC, symSize: 0x30 }
  - { offset: 0x1D15E, size: 0x8, addend: 0x0, symName: __ZSt4moveIRPFbSt4pairIiiES1_EEONSt16remove_referenceIT_E4typeEOS6_, symObjAddr: 0xCDC, symBinAddr: 0x1000089B8, symSize: 0x14 }
  - { offset: 0x1D190, size: 0x8, addend: 0x0, symName: __ZSt8_DestroyIPSt4pairIiiEEvT_S3_, symObjAddr: 0xCB4, symBinAddr: 0x100008990, symSize: 0x28 }
  - { offset: 0x1D1D2, size: 0x8, addend: 0x0, symName: __ZSt27__uninitialized_default_n_aIPSt4pairIiiEmS1_ET_S3_T0_RSaIT1_E, symObjAddr: 0xC8C, symBinAddr: 0x100008968, symSize: 0x28 }
  - { offset: 0x1D235, size: 0x8, addend: 0x0, symName: __ZNSt12_Vector_baseISt4pairIiiESaIS1_EE13_M_deallocateEPS1_m, symObjAddr: 0xC34, symBinAddr: 0x100008910, symSize: 0x58 }
  - { offset: 0x1D2B7, size: 0x8, addend: 0x0, symName: __ZNSt12_Vector_baseISt4pairIiiESaIS1_EE17_M_create_storageEm, symObjAddr: 0xBD4, symBinAddr: 0x1000088B0, symSize: 0x60 }
  - { offset: 0x1D319, size: 0x8, addend: 0x0, symName: __ZNSt12_Vector_baseISt4pairIiiESaIS1_EE12_Vector_implC1ERKS2_, symObjAddr: 0xB88, symBinAddr: 0x100008864, symSize: 0x4C }
  - { offset: 0x1D3BF, size: 0x8, addend: 0x0, symName: __ZNSt6vectorISt4pairIiiESaIS1_EE11_S_max_sizeERKS2_, symObjAddr: 0xB34, symBinAddr: 0x100008810, symSize: 0x54 }
  - { offset: 0x1D476, size: 0x8, addend: 0x0, symName: __ZSt11__bit_widthImEiT_, symObjAddr: 0xB04, symBinAddr: 0x1000087E0, symSize: 0x30 }
  - { offset: 0x1D4BE, size: 0x8, addend: 0x0, symName: __ZNK9__gnu_cxx17__normal_iteratorIPSt4pairIiiESt6vectorIS2_SaIS2_EEE4baseEv, symObjAddr: 0xAF0, symBinAddr: 0x1000087CC, symSize: 0x14 }
  - { offset: 0x1D4E4, size: 0x8, addend: 0x0, symName: __ZSt13__upper_boundIN9__gnu_cxx17__normal_iteratorIPSt4pairIiiESt6vectorIS3_SaIS3_EEEES3_NS0_5__ops14_Val_comp_iterIPFbS3_S3_EEEET_SE_SE_RKT0_T1_, symObjAddr: 0x9E8, symBinAddr: 0x1000086C4, symSize: 0x108 }
  - { offset: 0x1D68E, size: 0x8, addend: 0x0, symName: __ZN9__gnu_cxx5__ops15__val_comp_iterIPFbSt4pairIiiES3_EEENS0_14_Val_comp_iterIT_EES7_, symObjAddr: 0x9BC, symBinAddr: 0x100008698, symSize: 0x2C }
  - { offset: 0x1D70C, size: 0x8, addend: 0x0, symName: __ZNSt4pairIiiEC1IRiiLb1EEEOT_OT0_, symObjAddr: 0x974, symBinAddr: 0x100008650, symSize: 0x48 }
  - { offset: 0x1D758, size: 0x8, addend: 0x0, symName: __ZSt7forwardIRiEOT_RNSt16remove_referenceIS1_E4typeE, symObjAddr: 0x960, symBinAddr: 0x10000863C, symSize: 0x14 }
  - { offset: 0x1D78A, size: 0x8, addend: 0x0, symName: __ZSt6__sortIN9__gnu_cxx17__normal_iteratorIPSt4pairIiiESt6vectorIS3_SaIS3_EEEENS0_5__ops15_Iter_comp_iterIPFbS3_S3_EEEEvT_SE_T0_, symObjAddr: 0x8F0, symBinAddr: 0x1000085CC, symSize: 0x70 }
  - { offset: 0x1D7E8, size: 0x8, addend: 0x0, symName: __ZN9__gnu_cxx5__ops16__iter_comp_iterIPFbSt4pairIiiES3_EEENS0_15_Iter_comp_iterIT_EES7_, symObjAddr: 0x8C4, symBinAddr: 0x1000085A0, symSize: 0x2C }
  - { offset: 0x1D846, size: 0x8, addend: 0x0, symName: __ZN9__gnu_cxx17__normal_iteratorIPSt4pairIiiESt6vectorIS2_SaIS2_EEEC1ERKS3_, symObjAddr: 0x89C, symBinAddr: 0x100008578, symSize: 0x28 }
  - { offset: 0x1D8B0, size: 0x8, addend: 0x0, symName: __ZNSt12_Vector_baseISt4pairIiiESaIS1_EE19_M_get_Tp_allocatorEv, symObjAddr: 0x888, symBinAddr: 0x100008564, symSize: 0x14 }
  - { offset: 0x1D8DA, size: 0x8, addend: 0x0, symName: __ZNSt6vectorISt4pairIiiESaIS1_EE21_M_default_initializeEm, symObjAddr: 0x838, symBinAddr: 0x100008514, symSize: 0x50 }
  - { offset: 0x1D939, size: 0x8, addend: 0x0, symName: __ZNSt12_Vector_baseISt4pairIiiESaIS1_EED2Ev, symObjAddr: 0x7E8, symBinAddr: 0x1000084C4, symSize: 0x50 }
  - { offset: 0x1D995, size: 0x8, addend: 0x0, symName: __ZNSt12_Vector_baseISt4pairIiiESaIS1_EEC2EmRKS2_, symObjAddr: 0x794, symBinAddr: 0x100008470, symSize: 0x54 }
  - { offset: 0x1D9F4, size: 0x8, addend: 0x0, symName: __ZNSt12_Vector_baseISt4pairIiiESaIS1_EE12_Vector_implD1Ev, symObjAddr: 0x768, symBinAddr: 0x100008444, symSize: 0x2C }
  - { offset: 0x1DA39, size: 0x8, addend: 0x0, symName: __ZNSt6vectorISt4pairIiiESaIS1_EE17_S_check_init_lenEmRKS2_, symObjAddr: 0x6E4, symBinAddr: 0x1000083C0, symSize: 0x84 }
  - { offset: 0x1DB13, size: 0x8, addend: 0x0, symName: __ZNSt15__new_allocatorISt4pairIiiEED2Ev, symObjAddr: 0x6D0, symBinAddr: 0x1000083AC, symSize: 0x14 }
  - { offset: 0x1DB4F, size: 0x8, addend: 0x0, symName: __ZNK9__gnu_cxx17__normal_iteratorIPSt4pairIiiESt6vectorIS2_SaIS2_EEEptEv, symObjAddr: 0x6B8, symBinAddr: 0x100008394, symSize: 0x18 }
  - { offset: 0x1DB75, size: 0x8, addend: 0x0, symName: __ZSt3maxIiERKT_S2_S2_, symObjAddr: 0x680, symBinAddr: 0x10000835C, symSize: 0x38 }
  - { offset: 0x1DBB9, size: 0x8, addend: 0x0, symName: __ZN9__gnu_cxxmiIPSt4pairIiiESt6vectorIS2_SaIS2_EEEENS_17__normal_iteratorIT_T0_E15difference_typeERKSA_SD_, symObjAddr: 0x640, symBinAddr: 0x10000831C, symSize: 0x40 }
  - { offset: 0x1DC06, size: 0x8, addend: 0x0, symName: __ZN9__gnu_cxxeqIPSt4pairIiiESt6vectorIS2_SaIS2_EEEEbRKNS_17__normal_iteratorIT_T0_EESC_, symObjAddr: 0x5FC, symBinAddr: 0x1000082D8, symSize: 0x44 }
  - { offset: 0x1DC57, size: 0x8, addend: 0x0, symName: __ZN9__gnu_cxx17__normal_iteratorIPSt4pairIiiESt6vectorIS2_SaIS2_EEEmmEi, symObjAddr: 0x5BC, symBinAddr: 0x100008298, symSize: 0x40 }
  - { offset: 0x1DC86, size: 0x8, addend: 0x0, symName: __ZSt11upper_boundIN9__gnu_cxx17__normal_iteratorIPSt4pairIiiESt6vectorIS3_SaIS3_EEEES3_PFbS3_S3_EET_SB_SB_RKT0_T1_, symObjAddr: 0x580, symBinAddr: 0x10000825C, symSize: 0x3C }
  - { offset: 0x1DCFE, size: 0x8, addend: 0x0, symName: __ZSt9make_pairIRiiESt4pairINSt25__strip_reference_wrapperINSt5decayIT_E4typeEE6__typeENS2_INS3_IT0_E4typeEE6__typeEEOS4_OS9_, symObjAddr: 0x534, symBinAddr: 0x100008210, symSize: 0x4C }
  - { offset: 0x1DD4B, size: 0x8, addend: 0x0, symName: __ZSt4sortIN9__gnu_cxx17__normal_iteratorIPSt4pairIiiESt6vectorIS3_SaIS3_EEEEPFbS3_S3_EEvT_SB_T0_, symObjAddr: 0x4FC, symBinAddr: 0x1000081D8, symSize: 0x38 }
  - { offset: 0x1DDAD, size: 0x8, addend: 0x0, symName: __ZNSt6vectorISt4pairIiiESaIS1_EE3endEv, symObjAddr: 0x4D4, symBinAddr: 0x1000081B0, symSize: 0x28 }
  - { offset: 0x1DDD7, size: 0x8, addend: 0x0, symName: __ZNSt6vectorISt4pairIiiESaIS1_EE5beginEv, symObjAddr: 0x4B0, symBinAddr: 0x10000818C, symSize: 0x24 }
  - { offset: 0x1DE01, size: 0x8, addend: 0x0, symName: __ZNSt6vectorISt4pairIiiESaIS1_EEixEm, symObjAddr: 0x488, symBinAddr: 0x100008164, symSize: 0x28 }
  - { offset: 0x1DE60, size: 0x8, addend: 0x0, symName: __ZNSt6vectorISt4pairIiiESaIS1_EED1Ev, symObjAddr: 0x42C, symBinAddr: 0x100008108, symSize: 0x5C }
  - { offset: 0x1DEF2, size: 0x8, addend: 0x0, symName: __ZNSt6vectorISt4pairIiiESaIS1_EEC1EmRKS2_, symObjAddr: 0x3C4, symBinAddr: 0x1000080A0, symSize: 0x68 }
  - { offset: 0x1DF62, size: 0x8, addend: 0x0, symName: __ZSt7forwardIiEOT_RNSt16remove_referenceIS0_E4typeE, symObjAddr: 0x3B0, symBinAddr: 0x10000808C, symSize: 0x14 }
  - { offset: 0x1DF9B, size: 0x8, addend: 0x0, symName: _main, symObjAddr: 0x78, symBinAddr: 0x100007D54, symSize: 0x338 }
  - { offset: 0x1E110, size: 0x8, addend: 0x0, symName: __Z3cmpSt4pairIiiES0_, symObjAddr: 0x50, symBinAddr: 0x100007D2C, symSize: 0x28 }
  - { offset: 0x1E149, size: 0x8, addend: 0x0, symName: __ZSt3minImERKT_S2_S2_, symObjAddr: 0x18, symBinAddr: 0x100007CF4, symSize: 0x38 }
  - { offset: 0x1E196, size: 0x8, addend: 0x0, symName: __ZnwmPv, symObjAddr: 0x0, symBinAddr: 0x100007CDC, symSize: 0x18 }
...
